; Function Attrs: mustprogress nounwind uwtable
define hidden noundef zeroext i1 @_ZN8PSOldGen9expand_byEm(ptr noundef nonnull align 8 dereferenceable(128) %0, i64 noundef %1) local_unnamed_addr #0 align 2 {
  %3 = getelementptr inbounds i8, ptr %0, i64 8
  %4 = load ptr, ptr %3, align 8
  %5 = load ptr, ptr %4, align 8
  %6 = load ptr, ptr %5, align 8
  %7 = tail call noundef zeroext i1 %6(ptr noundef nonnull align 8 dereferenceable(49) %4, i64 noundef %1) #7
  br i1 %7, label %8, label %.critedge

8:                                                ; preds = %2
  %9 = load ptr, ptr %3, align 8
  %10 = getelementptr inbounds i8, ptr %9, i64 32
  %11 = load ptr, ptr %10, align 8
  %12 = getelementptr inbounds i8, ptr %9, i64 40
  %13 = load ptr, ptr %12, align 8
  %14 = ptrtoint ptr %13 to i64
  %15 = ptrtoint ptr %11 to i64
  %16 = sub i64 %14, %15
  %17 = lshr i64 %16, 3
  %18 = getelementptr inbounds i8, ptr %0, i64 16
  tail call void @_ZN16ObjectStartArray18set_covered_regionE9MemRegion(ptr noundef nonnull align 8 dereferenceable(72) %18, ptr %11, i64 %17) #7
  %19 = load ptr, ptr @_ZN8Universe14_collectedHeapE, align 8
  %20 = tail call noundef ptr @_ZN20ParallelScavengeHeap10card_tableEv(ptr noundef nonnull align 8 dereferenceable(264) %19) #7
  tail call void @_ZN9CardTable21resize_covered_regionE9MemRegion(ptr noundef nonnull align 8 dereferenceable(88) %20, ptr %11, i64 %17) #7
  %21 = tail call align 8 ptr @llvm.threadlocal.address.p0(ptr align 8 @_ZN6Thread12_thr_currentE)
  %22 = load ptr, ptr %21, align 8
  %23 = load ptr, ptr %22, align 8
  %24 = getelementptr inbounds i8, ptr %23, i64 48
  %25 = load ptr, ptr %24, align 8
  %26 = tail call noundef zeroext i1 %25(ptr noundef nonnull align 8 dereferenceable(888) %22) #7
  %27 = load ptr, ptr @_ZN8Universe14_collectedHeapE, align 8
  %28 = getelementptr inbounds i8, ptr %27, i64 144
  %29 = select i1 %26, ptr %28, ptr null
  %30 = getelementptr inbounds i8, ptr %0, i64 88
  %31 = load ptr, ptr %30, align 8
  %32 = load ptr, ptr %31, align 8
  %33 = getelementptr inbounds i8, ptr %32, i64 24
  %34 = load ptr, ptr %33, align 8
  tail call void %34(ptr noundef nonnull align 8 dereferenceable(56) %31, ptr %11, i64 %17, i1 noundef zeroext false, i1 noundef zeroext false, i1 noundef zeroext true, ptr noundef %29) #7
  %35 = load i8, ptr @UsePerfData, align 1
  %36 = trunc i8 %35 to i1
  br i1 %36, label %37, label %57

37:                                               ; preds = %8
  %38 = getelementptr inbounds i8, ptr %0, i64 104
  %39 = load ptr, ptr %38, align 8
  %40 = load ptr, ptr %39, align 8
  %41 = getelementptr inbounds i8, ptr %39, i64 24
  %42 = load ptr, ptr %41, align 8
  %43 = getelementptr inbounds i8, ptr %42, i64 48
  %44 = load ptr, ptr %43, align 8
  %45 = getelementptr inbounds i8, ptr %42, i64 32
  %46 = load ptr, ptr %45, align 8
  %47 = ptrtoint ptr %44 to i64
  %48 = ptrtoint ptr %46 to i64
  %49 = sub i64 %47, %48
  %50 = and i64 %49, -8
  %51 = getelementptr inbounds i8, ptr %40, i64 40
  %52 = load ptr, ptr %51, align 8
  store i64 %50, ptr %52, align 8
  %53 = getelementptr inbounds i8, ptr %0, i64 96
  %54 = load ptr, ptr %53, align 8
  %55 = load ptr, ptr %54, align 8
  %56 = load ptr, ptr %55, align 8
  tail call void %56(ptr noundef nonnull align 8 dereferenceable(40) %54) #7
  br label %57

57:                                               ; preds = %37, %8
  %58 = load ptr, ptr %3, align 8
  %59 = getelementptr inbounds i8, ptr %58, i64 40
  %60 = load ptr, ptr %59, align 8
  %61 = getelementptr inbounds i8, ptr %58, i64 32
  %62 = load ptr, ptr %61, align 8
  %63 = load volatile ptr, ptr getelementptr inbounds (i8, ptr @_ZN16LogTagSetMappingILN6LogTag4typeE49ELS1_0ELS1_0ELS1_0ELS1_0ELS1_0EE7_tagsetE, i64 56), align 8
  %.not = icmp eq ptr %63, null
  br i1 %.not, label %.critedge, label %64

64:                                               ; preds = %57
  %65 = ptrtoint ptr %60 to i64
  %66 = ptrtoint ptr %62 to i64
  %67 = sub i64 %65, %66
  %68 = sub i64 %67, %1
  %69 = lshr i64 %68, 10
  %70 = lshr i64 %1, 10
  %71 = lshr i64 %67, 10
  tail call void (ptr, ...) @_ZN7LogImplILN6LogTag4typeE49ELS1_0ELS1_0ELS1_0ELS1_0ELS1_0EE5writeILN8LogLevel4typeE2EEEvPKcz(ptr noundef nonnull @.str.9, ptr noundef nonnull @.str.22, i64 noundef %69, i64 noundef %70, i64 noundef %71)
  br label %.critedge

.critedge:                                        ; preds = %2, %64, %57
  ret i1 %7
}